target datalayout = "e-m:e-p270:32:32-p271:32:32-p272:64:64-i64:64-i128:128-f80:128-n8:16:32:64-S128"
target triple = "x86_64-pc-linux-gnu"

@.str.25 = private unnamed_addr constant [6 x i8] c"begin\00", align 1
@.str.26 = private unnamed_addr constant [5 x i8] c"case\00", align 1
@.str.27 = private unnamed_addr constant [6 x i8] c"casex\00", align 1
@.str.28 = private unnamed_addr constant [6 x i8] c"casez\00", align 1
@.str.29 = private unnamed_addr constant [6 x i8] c"class\00", align 1
@.str.30 = private unnamed_addr constant [9 x i8] c"function\00", align 1
@.str.31 = private unnamed_addr constant [10 x i8] c"interface\00", align 1
@.str.32 = private unnamed_addr constant [7 x i8] c"module\00", align 1
@.str.33 = private unnamed_addr constant [8 x i8] c"package\00", align 1
@.str.34 = private unnamed_addr constant [5 x i8] c"task\00", align 1

; Function Attrs: mustprogress nounwind uwtable
define dso_local noundef zeroext i1 @_ZN14V3OutFormatter10tokenStartEPKc(ptr noundef %0) #7 align 2 {
  %2 = alloca ptr, align 8
  store ptr %0, ptr %2, align 8, !tbaa !35
  %3 = load ptr, ptr %2, align 8, !tbaa !35
  %4 = call noundef zeroext i1 @_ZN14V3OutFormatter10tokenMatchEPKcS1_(ptr noundef %3, ptr noundef @.str.25)
  br i1 %4, label %32, label %5

5:                                                ; preds = %1
  %6 = load ptr, ptr %2, align 8, !tbaa !35
  %7 = call noundef zeroext i1 @_ZN14V3OutFormatter10tokenMatchEPKcS1_(ptr noundef %6, ptr noundef @.str.26)
  br i1 %7, label %32, label %8

8:                                                ; preds = %5
  %9 = load ptr, ptr %2, align 8, !tbaa !35
  %10 = call noundef zeroext i1 @_ZN14V3OutFormatter10tokenMatchEPKcS1_(ptr noundef %9, ptr noundef @.str.27)
  br i1 %10, label %32, label %11

11:                                               ; preds = %8
  %12 = load ptr, ptr %2, align 8, !tbaa !35
  %13 = call noundef zeroext i1 @_ZN14V3OutFormatter10tokenMatchEPKcS1_(ptr noundef %12, ptr noundef @.str.28)
  br i1 %13, label %32, label %14

14:                                               ; preds = %11
  %15 = load ptr, ptr %2, align 8, !tbaa !35
  %16 = call noundef zeroext i1 @_ZN14V3OutFormatter10tokenMatchEPKcS1_(ptr noundef %15, ptr noundef @.str.29)
  br i1 %16, label %32, label %17

17:                                               ; preds = %14
  %18 = load ptr, ptr %2, align 8, !tbaa !35
  %19 = call noundef zeroext i1 @_ZN14V3OutFormatter10tokenMatchEPKcS1_(ptr noundef %18, ptr noundef @.str.30)
  br i1 %19, label %32, label %20

20:                                               ; preds = %17
  %21 = load ptr, ptr %2, align 8, !tbaa !35
  %22 = call noundef zeroext i1 @_ZN14V3OutFormatter10tokenMatchEPKcS1_(ptr noundef %21, ptr noundef @.str.31)
  br i1 %22, label %32, label %23

23:                                               ; preds = %20
  %24 = load ptr, ptr %2, align 8, !tbaa !35
  %25 = call noundef zeroext i1 @_ZN14V3OutFormatter10tokenMatchEPKcS1_(ptr noundef %24, ptr noundef @.str.32)
  br i1 %25, label %32, label %26

26:                                               ; preds = %23
  %27 = load ptr, ptr %2, align 8, !tbaa !35
  %28 = call noundef zeroext i1 @_ZN14V3OutFormatter10tokenMatchEPKcS1_(ptr noundef %27, ptr noundef @.str.33)
  br i1 %28, label %32, label %29

29:                                               ; preds = %26
  %30 = load ptr, ptr %2, align 8, !tbaa !35
  %31 = call noundef zeroext i1 @_ZN14V3OutFormatter10tokenMatchEPKcS1_(ptr noundef %30, ptr noundef @.str.34)
  br label %32

32:                                               ; preds = %29, %26, %23, %20, %17, %14, %11, %8, %5, %1
  %33 = phi i1 [ true, %26 ], [ true, %23 ], [ true, %20 ], [ true, %17 ], [ true, %14 ], [ true, %11 ], [ true, %8 ], [ true, %5 ], [ true, %1 ], [ %31, %29 ]
  ret i1 %33
}