; Function Attrs: mustprogress nofree nounwind willreturn memory(read) uwtable
define dso_local noundef zeroext i1 @_ZN14V3OutFormatter10tokenStartEPKc(ptr noundef readonly captures(none) %0) local_unnamed_addr #12 align 2 {
  %scevgep = getelementptr i8, ptr %0, i64 5
  br label %.lr.ph.i

.lr.ph.i:                                         ; preds = %5, %1
  %2 = phi i8 [ %7, %5 ], [ 98, %1 ]
  %.019.i.idx = phi i64 [ %.019.i.add, %5 ], [ 0, %1 ]
  %.0918.i = phi ptr [ %6, %5 ], [ %0, %1 ]
  %3 = load i8, ptr %.0918.i, align 1, !tbaa !43
  %4 = icmp eq i8 %2, %3
  br i1 %4, label %5, label %.loopexit65

5:                                                ; preds = %.lr.ph.i
  %6 = getelementptr inbounds nuw i8, ptr %.0918.i, i64 1
  %.019.i.add = add nuw nsw i64 %.019.i.idx, 1
  %.ptr = getelementptr inbounds nuw i8, ptr @.str.25, i64 %.019.i.add
  %7 = load i8, ptr %.ptr, align 1, !tbaa !43
  %exitcond = icmp eq i64 %.019.i.add, 5
  br i1 %exitcond, label %._crit_edge.i, label %.lr.ph.i, !llvm.loop !175

._crit_edge.i:                                    ; preds = %5
  %8 = load i8, ptr %scevgep, align 1, !tbaa !43
  %.not14.i = icmp eq i8 %8, 0
  br i1 %.not14.i, label %_ZN14V3OutFormatter10tokenMatchEPKcS1_.exit, label %9

9:                                                ; preds = %._crit_edge.i
  %10 = sext i8 %8 to i32
  %11 = tail call i32 @isspace(i32 noundef %10) #33
  %.not15.i = icmp eq i32 %11, 0
  br i1 %.not15.i, label %.loopexit65, label %_ZN14V3OutFormatter10tokenMatchEPKcS1_.exit

.loopexit65:                                      ; preds = %.lr.ph.i, %9
  %scevgep76 = getelementptr i8, ptr %0, i64 4
  br label %.lr.ph.i10

.lr.ph.i10:                                       ; preds = %15, %.loopexit65
  %12 = phi i8 [ %17, %15 ], [ 99, %.loopexit65 ]
  %.019.i11.idx = phi i64 [ %.019.i11.add, %15 ], [ 0, %.loopexit65 ]
  %.0918.i12 = phi ptr [ %16, %15 ], [ %0, %.loopexit65 ]
  %13 = load i8, ptr %.0918.i12, align 1, !tbaa !43
  %14 = icmp eq i8 %12, %13
  br i1 %14, label %15, label %.lr.ph.i19.preheader

15:                                               ; preds = %.lr.ph.i10
  %16 = getelementptr inbounds nuw i8, ptr %.0918.i12, i64 1
  %.019.i11.add = add nuw nsw i64 %.019.i11.idx, 1
  %.ptr86 = getelementptr inbounds nuw i8, ptr @.str.26, i64 %.019.i11.add
  %17 = load i8, ptr %.ptr86, align 1, !tbaa !43
  %exitcond77 = icmp eq i64 %.019.i11.add, 4
  br i1 %exitcond77, label %._crit_edge.i15, label %.lr.ph.i10, !llvm.loop !175

._crit_edge.i15:                                  ; preds = %15
  %18 = load i8, ptr %scevgep76, align 1, !tbaa !43
  %.not14.i16 = icmp eq i8 %18, 0
  br i1 %.not14.i16, label %_ZN14V3OutFormatter10tokenMatchEPKcS1_.exit, label %19

19:                                               ; preds = %._crit_edge.i15
  %20 = sext i8 %18 to i32
  %21 = tail call i32 @isspace(i32 noundef %20) #33
  %.not15.i17 = icmp eq i32 %21, 0
  br i1 %.not15.i17, label %.lr.ph.i19.preheader, label %_ZN14V3OutFormatter10tokenMatchEPKcS1_.exit

.lr.ph.i19.preheader:                             ; preds = %.lr.ph.i10, %19
  br label %.lr.ph.i19

.lr.ph.i19:                                       ; preds = %.lr.ph.i19.preheader, %25
  %22 = phi i8 [ %27, %25 ], [ 99, %.lr.ph.i19.preheader ]
  %.019.i20.idx = phi i64 [ %.019.i20.add, %25 ], [ 0, %.lr.ph.i19.preheader ]
  %.0918.i21 = phi ptr [ %26, %25 ], [ %0, %.lr.ph.i19.preheader ]
  %23 = load i8, ptr %.0918.i21, align 1, !tbaa !43
  %24 = icmp eq i8 %22, %23
  br i1 %24, label %25, label %.lr.ph.i28.preheader

25:                                               ; preds = %.lr.ph.i19
  %26 = getelementptr inbounds nuw i8, ptr %.0918.i21, i64 1
  %.019.i20.add = add nuw nsw i64 %.019.i20.idx, 1
  %.ptr87 = getelementptr inbounds nuw i8, ptr @.str.27, i64 %.019.i20.add
  %27 = load i8, ptr %.ptr87, align 1, !tbaa !43
  %exitcond79 = icmp eq i64 %.019.i20.add, 5
  br i1 %exitcond79, label %._crit_edge.i24, label %.lr.ph.i19, !llvm.loop !175

._crit_edge.i24:                                  ; preds = %25
  %28 = load i8, ptr %scevgep, align 1, !tbaa !43
  %.not14.i25 = icmp eq i8 %28, 0
  br i1 %.not14.i25, label %_ZN14V3OutFormatter10tokenMatchEPKcS1_.exit, label %29

29:                                               ; preds = %._crit_edge.i24
  %30 = sext i8 %28 to i32
  %31 = tail call i32 @isspace(i32 noundef %30) #33
  %.not15.i26 = icmp eq i32 %31, 0
  br i1 %.not15.i26, label %.lr.ph.i28.preheader, label %_ZN14V3OutFormatter10tokenMatchEPKcS1_.exit

.lr.ph.i28.preheader:                             ; preds = %.lr.ph.i19, %29
  br label %.lr.ph.i28

.lr.ph.i28:                                       ; preds = %.lr.ph.i28.preheader, %35
  %32 = phi i8 [ %37, %35 ], [ 99, %.lr.ph.i28.preheader ]
  %.019.i29.idx = phi i64 [ %.019.i29.add, %35 ], [ 0, %.lr.ph.i28.preheader ]
  %.0918.i30 = phi ptr [ %36, %35 ], [ %0, %.lr.ph.i28.preheader ]
  %33 = load i8, ptr %.0918.i30, align 1, !tbaa !43
  %34 = icmp eq i8 %32, %33
  br i1 %34, label %35, label %.lr.ph.i37.preheader

35:                                               ; preds = %.lr.ph.i28
  %36 = getelementptr inbounds nuw i8, ptr %.0918.i30, i64 1
  %.019.i29.add = add nuw nsw i64 %.019.i29.idx, 1
  %.ptr88 = getelementptr inbounds nuw i8, ptr @.str.28, i64 %.019.i29.add
  %37 = load i8, ptr %.ptr88, align 1, !tbaa !43
  %exitcond81 = icmp eq i64 %.019.i29.add, 5
  br i1 %exitcond81, label %._crit_edge.i33, label %.lr.ph.i28, !llvm.loop !175

._crit_edge.i33:                                  ; preds = %35
  %38 = load i8, ptr %scevgep, align 1, !tbaa !43
  %.not14.i34 = icmp eq i8 %38, 0
  br i1 %.not14.i34, label %_ZN14V3OutFormatter10tokenMatchEPKcS1_.exit, label %39

39:                                               ; preds = %._crit_edge.i33
  %40 = sext i8 %38 to i32
  %41 = tail call i32 @isspace(i32 noundef %40) #33
  %.not15.i35 = icmp eq i32 %41, 0
  br i1 %.not15.i35, label %.lr.ph.i37.preheader, label %_ZN14V3OutFormatter10tokenMatchEPKcS1_.exit

.lr.ph.i37.preheader:                             ; preds = %.lr.ph.i28, %39
  br label %.lr.ph.i37

.lr.ph.i37:                                       ; preds = %.lr.ph.i37.preheader, %45
  %42 = phi i8 [ %47, %45 ], [ 99, %.lr.ph.i37.preheader ]
  %.019.i38.idx = phi i64 [ %.019.i38.add, %45 ], [ 0, %.lr.ph.i37.preheader ]
  %.0918.i39 = phi ptr [ %46, %45 ], [ %0, %.lr.ph.i37.preheader ]
  %43 = load i8, ptr %.0918.i39, align 1, !tbaa !43
  %44 = icmp eq i8 %42, %43
  br i1 %44, label %45, label %.loopexit61

45:                                               ; preds = %.lr.ph.i37
  %46 = getelementptr inbounds nuw i8, ptr %.0918.i39, i64 1
  %.019.i38.add = add nuw nsw i64 %.019.i38.idx, 1
  %.ptr89 = getelementptr inbounds nuw i8, ptr @.str.29, i64 %.019.i38.add
  %47 = load i8, ptr %.ptr89, align 1, !tbaa !43
  %exitcond83 = icmp eq i64 %.019.i38.add, 5
  br i1 %exitcond83, label %._crit_edge.i42, label %.lr.ph.i37, !llvm.loop !175

._crit_edge.i42:                                  ; preds = %45
  %48 = load i8, ptr %scevgep, align 1, !tbaa !43
  %.not14.i43 = icmp eq i8 %48, 0
  br i1 %.not14.i43, label %_ZN14V3OutFormatter10tokenMatchEPKcS1_.exit, label %49

49:                                               ; preds = %._crit_edge.i42
  %50 = sext i8 %48 to i32
  %51 = tail call i32 @isspace(i32 noundef %50) #33
  %.not15.i44 = icmp eq i32 %51, 0
  br i1 %.not15.i44, label %.loopexit61, label %_ZN14V3OutFormatter10tokenMatchEPKcS1_.exit

.loopexit61:                                      ; preds = %.lr.ph.i37, %49
  %scevgep84 = getelementptr i8, ptr %0, i64 8
  br label %.lr.ph.i46

.lr.ph.i46:                                       ; preds = %55, %.loopexit61
  %52 = phi i8 [ %57, %55 ], [ 102, %.loopexit61 ]
  %.019.i47.idx = phi i64 [ %.019.i47.add, %55 ], [ 0, %.loopexit61 ]
  %.0918.i48 = phi ptr [ %56, %55 ], [ %0, %.loopexit61 ]
  %53 = load i8, ptr %.0918.i48, align 1, !tbaa !43
  %54 = icmp eq i8 %52, %53
  br i1 %54, label %55, label %.loopexit

55:                                               ; preds = %.lr.ph.i46
  %56 = getelementptr inbounds nuw i8, ptr %.0918.i48, i64 1
  %.019.i47.add = add nuw nsw i64 %.019.i47.idx, 1
  %.ptr90 = getelementptr inbounds nuw i8, ptr @.str.30, i64 %.019.i47.add
  %57 = load i8, ptr %.ptr90, align 1, !tbaa !43
  %exitcond85 = icmp eq i64 %.019.i47.add, 8
  br i1 %exitcond85, label %._crit_edge.i51, label %.lr.ph.i46, !llvm.loop !175

._crit_edge.i51:                                  ; preds = %55
  %58 = load i8, ptr %scevgep84, align 1, !tbaa !43
  %.not14.i52 = icmp eq i8 %58, 0
  br i1 %.not14.i52, label %_ZN14V3OutFormatter10tokenMatchEPKcS1_.exit, label %59

59:                                               ; preds = %._crit_edge.i51
  %60 = sext i8 %58 to i32
  %61 = tail call i32 @isspace(i32 noundef %60) #33
  %.not15.i53 = icmp eq i32 %61, 0
  br i1 %.not15.i53, label %.loopexit, label %_ZN14V3OutFormatter10tokenMatchEPKcS1_.exit

.loopexit:                                        ; preds = %.lr.ph.i46, %59
  %62 = tail call noundef zeroext i1 @_ZN14V3OutFormatter10tokenMatchEPKcS1_(ptr noundef %0, ptr noundef nonnull @.str.31)
  br i1 %62, label %_ZN14V3OutFormatter10tokenMatchEPKcS1_.exit, label %63

63:                                               ; preds = %.loopexit
  %64 = tail call noundef zeroext i1 @_ZN14V3OutFormatter10tokenMatchEPKcS1_(ptr noundef %0, ptr noundef nonnull @.str.32)
  br i1 %64, label %_ZN14V3OutFormatter10tokenMatchEPKcS1_.exit, label %65

65:                                               ; preds = %63
  %66 = tail call noundef zeroext i1 @_ZN14V3OutFormatter10tokenMatchEPKcS1_(ptr noundef %0, ptr noundef nonnull @.str.33)
  br i1 %66, label %_ZN14V3OutFormatter10tokenMatchEPKcS1_.exit, label %67

67:                                               ; preds = %65
  %68 = tail call noundef zeroext i1 @_ZN14V3OutFormatter10tokenMatchEPKcS1_(ptr noundef %0, ptr noundef nonnull @.str.34)
  br label %_ZN14V3OutFormatter10tokenMatchEPKcS1_.exit

_ZN14V3OutFormatter10tokenMatchEPKcS1_.exit:      ; preds = %59, %._crit_edge.i51, %49, %._crit_edge.i42, %39, %._crit_edge.i33, %29, %._crit_edge.i24, %19, %._crit_edge.i15, %9, %._crit_edge.i, %67, %65, %63, %.loopexit
  %69 = phi i1 [ true, %65 ], [ true, %63 ], [ true, %.loopexit ], [ %68, %67 ], [ true, %._crit_edge.i ], [ true, %9 ], [ true, %._crit_edge.i15 ], [ true, %19 ], [ true, %._crit_edge.i24 ], [ true, %29 ], [ true, %._crit_edge.i33 ], [ true, %39 ], [ true, %._crit_edge.i42 ], [ true, %49 ], [ true, %._crit_edge.i51 ], [ true, %59 ]
  ret i1 %69
}